(ipolicy
Policy
p0
(dp1
S'policy_matrix'
p2
(lp3
(lp4
(lp5
(iaction
Action
p6
(dp7
S'move'
p8
I-1
sS'rotate'
p9
I-1
sba(iaction
Action
p10
(dp11
g8
I-1
sg9
I-1
sba(iaction
Action
p12
(dp13
g8
I-1
sg9
I-1
sba(iaction
Action
p14
(dp15
g8
I-1
sg9
I-1
sba(iaction
Action
p16
(dp17
g8
I-1
sg9
I-1
sba(iaction
Action
p18
(dp19
g8
I-1
sg9
I-1
sbaa(lp20
(iaction
Action
p21
(dp22
g8
I1
sg9
I-1
sba(iaction
Action
p23
(dp24
g8
I1
sg9
I-1
sba(iaction
Action
p25
(dp26
g8
I-1
sg9
I-1
sba(iaction
Action
p27
(dp28
g8
I-1
sg9
I-1
sba(iaction
Action
p29
(dp30
g8
I-1
sg9
I-1
sba(iaction
Action
p31
(dp32
g8
I-1
sg9
I-1
sbaa(lp33
(iaction
Action
p34
(dp35
g8
I1
sg9
I-1
sba(iaction
Action
p36
(dp37
g8
I0
sg9
I0
sba(iaction
Action
p38
(dp39
g8
I-1
sg9
I-1
sba(iaction
Action
p40
(dp41
g8
I-1
sg9
I-1
sba(iaction
Action
p42
(dp43
g8
I-1
sg9
I-1
sba(iaction
Action
p44
(dp45
g8
I-1
sg9
I-1
sbaa(lp46
(iaction
Action
p47
(dp48
g8
I1
sg9
I-1
sba(iaction
Action
p49
(dp50
g8
I1
sg9
I-1
sba(iaction
Action
p51
(dp52
g8
I1
sg9
I-1
sba(iaction
Action
p53
(dp54
g8
I1
sg9
I-1
sba(iaction
Action
p55
(dp56
g8
I0
sg9
I0
sba(iaction
Action
p57
(dp58
g8
I-1
sg9
I-1
sbaa(lp59
(iaction
Action
p60
(dp61
g8
I1
sg9
I-1
sba(iaction
Action
p62
(dp63
g8
I0
sg9
I0
sba(iaction
Action
p64
(dp65
g8
I-1
sg9
I-1
sba(iaction
Action
p66
(dp67
g8
I-1
sg9
I-1
sba(iaction
Action
p68
(dp69
g8
I-1
sg9
I-1
sba(iaction
Action
p70
(dp71
g8
I-1
sg9
I-1
sbaa(lp72
(iaction
Action
p73
(dp74
g8
I-1
sg9
I-1
sba(iaction
Action
p75
(dp76
g8
I-1
sg9
I-1
sba(iaction
Action
p77
(dp78
g8
I1
sg9
I-1
sba(iaction
Action
p79
(dp80
g8
I-1
sg9
I-1
sba(iaction
Action
p81
(dp82
g8
I-1
sg9
I-1
sba(iaction
Action
p83
(dp84
g8
I1
sg9
I-1
sbaaa(lp85
(lp86
(iaction
Action
p87
(dp88
g8
I1
sg9
I1
sba(iaction
Action
p89
(dp90
g8
I1
sg9
I1
sba(iaction
Action
p91
(dp92
g8
I-1
sg9
I1
sba(iaction
Action
p93
(dp94
g8
I-1
sg9
I1
sba(iaction
Action
p95
(dp96
g8
I-1
sg9
I1
sba(iaction
Action
p97
(dp98
g8
I-1
sg9
I1
sbaa(lp99
(iaction
Action
p100
(dp101
g8
I1
sg9
I1
sba(iaction
Action
p102
(dp103
g8
I1
sg9
I0
sba(iaction
Action
p104
(dp105
g8
I-1
sg9
I1
sba(iaction
Action
p106
(dp107
g8
I-1
sg9
I0
sba(iaction
Action
p108
(dp109
g8
I-1
sg9
I-1
sba(iaction
Action
p110
(dp111
g8
I-1
sg9
I-1
sbaa(lp112
(iaction
Action
p113
(dp114
g8
I1
sg9
I1
sba(iaction
Action
p115
(dp116
g8
I0
sg9
I0
sba(iaction
Action
p117
(dp118
g8
I-1
sg9
I1
sba(iaction
Action
p119
(dp120
g8
I1
sg9
I1
sba(iaction
Action
p121
(dp122
g8
I-1
sg9
I1
sba(iaction
Action
p123
(dp124
g8
I-1
sg9
I1
sbaa(lp125
(iaction
Action
p126
(dp127
g8
I1
sg9
I-1
sba(iaction
Action
p128
(dp129
g8
I1
sg9
I-1
sba(iaction
Action
p130
(dp131
g8
I1
sg9
I-1
sba(iaction
Action
p132
(dp133
g8
I1
sg9
I-1
sba(iaction
Action
p134
(dp135
g8
I0
sg9
I0
sba(iaction
Action
p136
(dp137
g8
I-1
sg9
I-1
sbaa(lp138
(iaction
Action
p139
(dp140
g8
I1
sg9
I1
sba(iaction
Action
p141
(dp142
g8
I0
sg9
I0
sba(iaction
Action
p143
(dp144
g8
I-1
sg9
I1
sba(iaction
Action
p145
(dp146
g8
I1
sg9
I1
sba(iaction
Action
p147
(dp148
g8
I-1
sg9
I1
sba(iaction
Action
p149
(dp150
g8
I-1
sg9
I1
sbaa(lp151
(iaction
Action
p152
(dp153
g8
I1
sg9
I1
sba(iaction
Action
p154
(dp155
g8
I1
sg9
I1
sba(iaction
Action
p156
(dp157
g8
I-1
sg9
I1
sba(iaction
Action
p158
(dp159
g8
I1
sg9
I1
sba(iaction
Action
p160
(dp161
g8
I-1
sg9
I1
sba(iaction
Action
p162
(dp163
g8
I-1
sg9
I1
sbaaa(lp164
(lp165
(iaction
Action
p166
(dp167
g8
I1
sg9
I-1
sba(iaction
Action
p168
(dp169
g8
I1
sg9
I0
sba(iaction
Action
p170
(dp171
g8
I1
sg9
I-1
sba(iaction
Action
p172
(dp173
g8
I1
sg9
I-1
sba(iaction
Action
p174
(dp175
g8
I1
sg9
I-1
sba(iaction
Action
p176
(dp177
g8
I1
sg9
I-1
sbaa(lp178
(iaction
Action
p179
(dp180
g8
I1
sg9
I-1
sba(iaction
Action
p181
(dp182
g8
I1
sg9
I0
sba(iaction
Action
p183
(dp184
g8
I0
sg9
I0
sba(iaction
Action
p185
(dp186
g8
I0
sg9
I0
sba(iaction
Action
p187
(dp188
g8
I0
sg9
I0
sba(iaction
Action
p189
(dp190
g8
I1
sg9
I-1
sbaa(lp191
(iaction
Action
p192
(dp193
g8
I1
sg9
I-1
sba(iaction
Action
p194
(dp195
g8
I1
sg9
I-1
sba(iaction
Action
p196
(dp197
g8
I1
sg9
I-1
sba(iaction
Action
p198
(dp199
g8
I1
sg9
I-1
sba(iaction
Action
p200
(dp201
g8
I1
sg9
I-1
sba(iaction
Action
p202
(dp203
g8
I1
sg9
I-1
sbaa(lp204
(iaction
Action
p205
(dp206
g8
I-1
sg9
I-1
sba(iaction
Action
p207
(dp208
g8
I-1
sg9
I0
sba(iaction
Action
p209
(dp210
g8
I0
sg9
I0
sba(iaction
Action
p211
(dp212
g8
I0
sg9
I0
sba(iaction
Action
p213
(dp214
g8
I0
sg9
I0
sba(iaction
Action
p215
(dp216
g8
I-1
sg9
I-1
sbaa(lp217
(iaction
Action
p218
(dp219
g8
I-1
sg9
I-1
sba(iaction
Action
p220
(dp221
g8
I-1
sg9
I-1
sba(iaction
Action
p222
(dp223
g8
I-1
sg9
I-1
sba(iaction
Action
p224
(dp225
g8
I-1
sg9
I-1
sba(iaction
Action
p226
(dp227
g8
I-1
sg9
I-1
sba(iaction
Action
p228
(dp229
g8
I-1
sg9
I-1
sbaa(lp230
(iaction
Action
p231
(dp232
g8
I-1
sg9
I-1
sba(iaction
Action
p233
(dp234
g8
I-1
sg9
I0
sba(iaction
Action
p235
(dp236
g8
I-1
sg9
I0
sba(iaction
Action
p237
(dp238
g8
I-1
sg9
I0
sba(iaction
Action
p239
(dp240
g8
I-1
sg9
I0
sba(iaction
Action
p241
(dp242
g8
I-1
sg9
I-1
sbaaa(lp243
(lp244
(iaction
Action
p245
(dp246
g8
I1
sg9
I-1
sba(iaction
Action
p247
(dp248
g8
I1
sg9
I-1
sba(iaction
Action
p249
(dp250
g8
I1
sg9
I-1
sba(iaction
Action
p251
(dp252
g8
I1
sg9
I-1
sba(iaction
Action
p253
(dp254
g8
I1
sg9
I-1
sba(iaction
Action
p255
(dp256
g8
I-1
sg9
I-1
sbaa(lp257
(iaction
Action
p258
(dp259
g8
I1
sg9
I-1
sba(iaction
Action
p260
(dp261
g8
I1
sg9
I-1
sba(iaction
Action
p262
(dp263
g8
I0
sg9
I0
sba(iaction
Action
p264
(dp265
g8
I0
sg9
I0
sba(iaction
Action
p266
(dp267
g8
I0
sg9
I0
sba(iaction
Action
p268
(dp269
g8
I1
sg9
I-1
sbaa(lp270
(iaction
Action
p271
(dp272
g8
I-1
sg9
I-1
sba(iaction
Action
p273
(dp274
g8
I-1
sg9
I-1
sba(iaction
Action
p275
(dp276
g8
I-1
sg9
I-1
sba(iaction
Action
p277
(dp278
g8
I-1
sg9
I-1
sba(iaction
Action
p279
(dp280
g8
I1
sg9
I-1
sba(iaction
Action
p281
(dp282
g8
I-1
sg9
I-1
sbaa(lp283
(iaction
Action
p284
(dp285
g8
I-1
sg9
I-1
sba(iaction
Action
p286
(dp287
g8
I-1
sg9
I-1
sba(iaction
Action
p288
(dp289
g8
I0
sg9
I0
sba(iaction
Action
p290
(dp291
g8
I0
sg9
I0
sba(iaction
Action
p292
(dp293
g8
I0
sg9
I0
sba(iaction
Action
p294
(dp295
g8
I-1
sg9
I-1
sbaa(lp296
(iaction
Action
p297
(dp298
g8
I-1
sg9
I-1
sba(iaction
Action
p299
(dp300
g8
I-1
sg9
I-1
sba(iaction
Action
p301
(dp302
g8
I-1
sg9
I-1
sba(iaction
Action
p303
(dp304
g8
I-1
sg9
I-1
sba(iaction
Action
p305
(dp306
g8
I-1
sg9
I-1
sba(iaction
Action
p307
(dp308
g8
I-1
sg9
I-1
sbaa(lp309
(iaction
Action
p310
(dp311
g8
I-1
sg9
I-1
sba(iaction
Action
p312
(dp313
g8
I-1
sg9
I-1
sba(iaction
Action
p314
(dp315
g8
I-1
sg9
I-1
sba(iaction
Action
p316
(dp317
g8
I-1
sg9
I-1
sba(iaction
Action
p318
(dp319
g8
I-1
sg9
I-1
sba(iaction
Action
p320
(dp321
g8
I-1
sg9
I-1
sbaaa(lp322
(lp323
(iaction
Action
p324
(dp325
g8
I1
sg9
I1
sba(iaction
Action
p326
(dp327
g8
I1
sg9
I-1
sba(iaction
Action
p328
(dp329
g8
I1
sg9
I1
sba(iaction
Action
p330
(dp331
g8
I1
sg9
I1
sba(iaction
Action
p332
(dp333
g8
I1
sg9
I1
sba(iaction
Action
p334
(dp335
g8
I1
sg9
I1
sbaa(lp336
(iaction
Action
p337
(dp338
g8
I1
sg9
I1
sba(iaction
Action
p339
(dp340
g8
I1
sg9
I0
sba(iaction
Action
p341
(dp342
g8
I0
sg9
I0
sba(iaction
Action
p343
(dp344
g8
I0
sg9
I0
sba(iaction
Action
p345
(dp346
g8
I0
sg9
I0
sba(iaction
Action
p347
(dp348
g8
I1
sg9
I1
sbaa(lp349
(iaction
Action
p350
(dp351
g8
I1
sg9
I1
sba(iaction
Action
p352
(dp353
g8
I1
sg9
I1
sba(iaction
Action
p354
(dp355
g8
I1
sg9
I1
sba(iaction
Action
p356
(dp357
g8
I1
sg9
I1
sba(iaction
Action
p358
(dp359
g8
I1
sg9
I-1
sba(iaction
Action
p360
(dp361
g8
I1
sg9
I1
sbaa(lp362
(iaction
Action
p363
(dp364
g8
I-1
sg9
I1
sba(iaction
Action
p365
(dp366
g8
I-1
sg9
I0
sba(iaction
Action
p367
(dp368
g8
I0
sg9
I0
sba(iaction
Action
p369
(dp370
g8
I0
sg9
I0
sba(iaction
Action
p371
(dp372
g8
I0
sg9
I0
sba(iaction
Action
p373
(dp374
g8
I-1
sg9
I1
sbaa(lp375
(iaction
Action
p376
(dp377
g8
I-1
sg9
I1
sba(iaction
Action
p378
(dp379
g8
I-1
sg9
I1
sba(iaction
Action
p380
(dp381
g8
I-1
sg9
I1
sba(iaction
Action
p382
(dp383
g8
I-1
sg9
I1
sba(iaction
Action
p384
(dp385
g8
I-1
sg9
I-1
sba(iaction
Action
p386
(dp387
g8
I-1
sg9
I1
sbaa(lp388
(iaction
Action
p389
(dp390
g8
I-1
sg9
I1
sba(iaction
Action
p391
(dp392
g8
I-1
sg9
I0
sba(iaction
Action
p393
(dp394
g8
I-1
sg9
I0
sba(iaction
Action
p395
(dp396
g8
I-1
sg9
I0
sba(iaction
Action
p397
(dp398
g8
I-1
sg9
I-1
sba(iaction
Action
p399
(dp400
g8
I-1
sg9
I1
sbaaa(lp401
(lp402
(iaction
Action
p403
(dp404
g8
I-1
sg9
I-1
sba(iaction
Action
p405
(dp406
g8
I-1
sg9
I-1
sba(iaction
Action
p407
(dp408
g8
I1
sg9
I-1
sba(iaction
Action
p409
(dp410
g8
I1
sg9
I-1
sba(iaction
Action
p411
(dp412
g8
I1
sg9
I-1
sba(iaction
Action
p413
(dp414
g8
I1
sg9
I-1
sbaa(lp415
(iaction
Action
p416
(dp417
g8
I-1
sg9
I-1
sba(iaction
Action
p418
(dp419
g8
I-1
sg9
I0
sba(iaction
Action
p420
(dp421
g8
I1
sg9
I-1
sba(iaction
Action
p422
(dp423
g8
I1
sg9
I0
sba(iaction
Action
p424
(dp425
g8
I1
sg9
I0
sba(iaction
Action
p426
(dp427
g8
I1
sg9
I0
sbaa(lp428
(iaction
Action
p429
(dp430
g8
I-1
sg9
I-1
sba(iaction
Action
p431
(dp432
g8
I0
sg9
I0
sba(iaction
Action
p433
(dp434
g8
I1
sg9
I-1
sba(iaction
Action
p435
(dp436
g8
I-1
sg9
I-1
sba(iaction
Action
p437
(dp438
g8
I1
sg9
I-1
sba(iaction
Action
p439
(dp440
g8
I1
sg9
I-1
sbaa(lp441
(iaction
Action
p442
(dp443
g8
I-1
sg9
I0
sba(iaction
Action
p444
(dp445
g8
I-1
sg9
I0
sba(iaction
Action
p446
(dp447
g8
I-1
sg9
I0
sba(iaction
Action
p448
(dp449
g8
I-1
sg9
I-1
sba(iaction
Action
p450
(dp451
g8
I0
sg9
I0
sba(iaction
Action
p452
(dp453
g8
I1
sg9
I-1
sbaa(lp454
(iaction
Action
p455
(dp456
g8
I-1
sg9
I-1
sba(iaction
Action
p457
(dp458
g8
I0
sg9
I0
sba(iaction
Action
p459
(dp460
g8
I1
sg9
I-1
sba(iaction
Action
p461
(dp462
g8
I-1
sg9
I-1
sba(iaction
Action
p463
(dp464
g8
I1
sg9
I-1
sba(iaction
Action
p465
(dp466
g8
I1
sg9
I-1
sbaa(lp467
(iaction
Action
p468
(dp469
g8
I-1
sg9
I-1
sba(iaction
Action
p470
(dp471
g8
I-1
sg9
I-1
sba(iaction
Action
p472
(dp473
g8
I1
sg9
I-1
sba(iaction
Action
p474
(dp475
g8
I-1
sg9
I-1
sba(iaction
Action
p476
(dp477
g8
I1
sg9
I-1
sba(iaction
Action
p478
(dp479
g8
I1
sg9
I-1
sbaaa(lp480
(lp481
(iaction
Action
p482
(dp483
g8
I1
sg9
I-1
sba(iaction
Action
p484
(dp485
g8
I-1
sg9
I-1
sba(iaction
Action
p486
(dp487
g8
I-1
sg9
I-1
sba(iaction
Action
p488
(dp489
g8
I1
sg9
I-1
sba(iaction
Action
p490
(dp491
g8
I1
sg9
I-1
sba(iaction
Action
p492
(dp493
g8
I1
sg9
I-1
sbaa(lp494
(iaction
Action
p495
(dp496
g8
I-1
sg9
I-1
sba(iaction
Action
p497
(dp498
g8
I-1
sg9
I-1
sba(iaction
Action
p499
(dp500
g8
I-1
sg9
I-1
sba(iaction
Action
p501
(dp502
g8
I1
sg9
I-1
sba(iaction
Action
p503
(dp504
g8
I1
sg9
I-1
sba(iaction
Action
p505
(dp506
g8
I1
sg9
I-1
sbaa(lp507
(iaction
Action
p508
(dp509
g8
I-1
sg9
I-1
sba(iaction
Action
p510
(dp511
g8
I0
sg9
I0
sba(iaction
Action
p512
(dp513
g8
I1
sg9
I-1
sba(iaction
Action
p514
(dp515
g8
I1
sg9
I-1
sba(iaction
Action
p516
(dp517
g8
I1
sg9
I-1
sba(iaction
Action
p518
(dp519
g8
I1
sg9
I-1
sbaa(lp520
(iaction
Action
p521
(dp522
g8
I-1
sg9
I-1
sba(iaction
Action
p523
(dp524
g8
I-1
sg9
I-1
sba(iaction
Action
p525
(dp526
g8
I-1
sg9
I-1
sba(iaction
Action
p527
(dp528
g8
I-1
sg9
I-1
sba(iaction
Action
p529
(dp530
g8
I0
sg9
I0
sba(iaction
Action
p531
(dp532
g8
I1
sg9
I-1
sbaa(lp533
(iaction
Action
p534
(dp535
g8
I-1
sg9
I-1
sba(iaction
Action
p536
(dp537
g8
I0
sg9
I0
sba(iaction
Action
p538
(dp539
g8
I1
sg9
I-1
sba(iaction
Action
p540
(dp541
g8
I1
sg9
I-1
sba(iaction
Action
p542
(dp543
g8
I1
sg9
I-1
sba(iaction
Action
p544
(dp545
g8
I1
sg9
I-1
sbaa(lp546
(iaction
Action
p547
(dp548
g8
I1
sg9
I-1
sba(iaction
Action
p549
(dp550
g8
I-1
sg9
I-1
sba(iaction
Action
p551
(dp552
g8
I-1
sg9
I-1
sba(iaction
Action
p553
(dp554
g8
I1
sg9
I-1
sba(iaction
Action
p555
(dp556
g8
I-1
sg9
I-1
sba(iaction
Action
p557
(dp558
g8
I-1
sg9
I-1
sbaaa(lp559
(lp560
(iaction
Action
p561
(dp562
g8
I-1
sg9
I1
sba(iaction
Action
p563
(dp564
g8
I-1
sg9
I1
sba(iaction
Action
p565
(dp566
g8
I1
sg9
I1
sba(iaction
Action
p567
(dp568
g8
I1
sg9
I1
sba(iaction
Action
p569
(dp570
g8
I1
sg9
I1
sba(iaction
Action
p571
(dp572
g8
I1
sg9
I1
sbaa(lp573
(iaction
Action
p574
(dp575
g8
I-1
sg9
I1
sba(iaction
Action
p576
(dp577
g8
I-1
sg9
I0
sba(iaction
Action
p578
(dp579
g8
I1
sg9
I1
sba(iaction
Action
p580
(dp581
g8
I1
sg9
I0
sba(iaction
Action
p582
(dp583
g8
I1
sg9
I-1
sba(iaction
Action
p584
(dp585
g8
I1
sg9
I-1
sbaa(lp586
(iaction
Action
p587
(dp588
g8
I-1
sg9
I1
sba(iaction
Action
p589
(dp590
g8
I0
sg9
I0
sba(iaction
Action
p591
(dp592
g8
I1
sg9
I1
sba(iaction
Action
p593
(dp594
g8
I-1
sg9
I1
sba(iaction
Action
p595
(dp596
g8
I1
sg9
I1
sba(iaction
Action
p597
(dp598
g8
I1
sg9
I1
sbaa(lp599
(iaction
Action
p600
(dp601
g8
I-1
sg9
I-1
sba(iaction
Action
p602
(dp603
g8
I-1
sg9
I-1
sba(iaction
Action
p604
(dp605
g8
I-1
sg9
I-1
sba(iaction
Action
p606
(dp607
g8
I-1
sg9
I-1
sba(iaction
Action
p608
(dp609
g8
I0
sg9
I0
sba(iaction
Action
p610
(dp611
g8
I1
sg9
I-1
sbaa(lp612
(iaction
Action
p613
(dp614
g8
I-1
sg9
I1
sba(iaction
Action
p615
(dp616
g8
I0
sg9
I0
sba(iaction
Action
p617
(dp618
g8
I1
sg9
I1
sba(iaction
Action
p619
(dp620
g8
I-1
sg9
I1
sba(iaction
Action
p621
(dp622
g8
I1
sg9
I1
sba(iaction
Action
p623
(dp624
g8
I1
sg9
I1
sbaa(lp625
(iaction
Action
p626
(dp627
g8
I-1
sg9
I1
sba(iaction
Action
p628
(dp629
g8
I-1
sg9
I1
sba(iaction
Action
p630
(dp631
g8
I1
sg9
I1
sba(iaction
Action
p632
(dp633
g8
I-1
sg9
I1
sba(iaction
Action
p634
(dp635
g8
I1
sg9
I1
sba(iaction
Action
p636
(dp637
g8
I1
sg9
I1
sbaaa(lp638
(lp639
(iaction
Action
p640
(dp641
g8
I-1
sg9
I-1
sba(iaction
Action
p642
(dp643
g8
I-1
sg9
I0
sba(iaction
Action
p644
(dp645
g8
I-1
sg9
I-1
sba(iaction
Action
p646
(dp647
g8
I-1
sg9
I-1
sba(iaction
Action
p648
(dp649
g8
I-1
sg9
I-1
sba(iaction
Action
p650
(dp651
g8
I-1
sg9
I-1
sbaa(lp652
(iaction
Action
p653
(dp654
g8
I-1
sg9
I-1
sba(iaction
Action
p655
(dp656
g8
I-1
sg9
I0
sba(iaction
Action
p657
(dp658
g8
I0
sg9
I0
sba(iaction
Action
p659
(dp660
g8
I0
sg9
I0
sba(iaction
Action
p661
(dp662
g8
I0
sg9
I0
sba(iaction
Action
p663
(dp664
g8
I-1
sg9
I-1
sbaa(lp665
(iaction
Action
p666
(dp667
g8
I-1
sg9
I-1
sba(iaction
Action
p668
(dp669
g8
I-1
sg9
I-1
sba(iaction
Action
p670
(dp671
g8
I-1
sg9
I-1
sba(iaction
Action
p672
(dp673
g8
I-1
sg9
I-1
sba(iaction
Action
p674
(dp675
g8
I-1
sg9
I-1
sba(iaction
Action
p676
(dp677
g8
I-1
sg9
I-1
sbaa(lp678
(iaction
Action
p679
(dp680
g8
I-1
sg9
I-1
sba(iaction
Action
p681
(dp682
g8
I-1
sg9
I0
sba(iaction
Action
p683
(dp684
g8
I0
sg9
I0
sba(iaction
Action
p685
(dp686
g8
I0
sg9
I0
sba(iaction
Action
p687
(dp688
g8
I0
sg9
I0
sba(iaction
Action
p689
(dp690
g8
I-1
sg9
I-1
sbaa(lp691
(iaction
Action
p692
(dp693
g8
I1
sg9
I-1
sba(iaction
Action
p694
(dp695
g8
I1
sg9
I-1
sba(iaction
Action
p696
(dp697
g8
I1
sg9
I-1
sba(iaction
Action
p698
(dp699
g8
I1
sg9
I-1
sba(iaction
Action
p700
(dp701
g8
I1
sg9
I-1
sba(iaction
Action
p702
(dp703
g8
I1
sg9
I-1
sbaa(lp704
(iaction
Action
p705
(dp706
g8
I1
sg9
I-1
sba(iaction
Action
p707
(dp708
g8
I1
sg9
I0
sba(iaction
Action
p709
(dp710
g8
I1
sg9
I0
sba(iaction
Action
p711
(dp712
g8
I1
sg9
I0
sba(iaction
Action
p713
(dp714
g8
I1
sg9
I0
sba(iaction
Action
p715
(dp716
g8
I1
sg9
I-1
sbaaa(lp717
(lp718
(iaction
Action
p719
(dp720
g8
I-1
sg9
I-1
sba(iaction
Action
p721
(dp722
g8
I-1
sg9
I-1
sba(iaction
Action
p723
(dp724
g8
I-1
sg9
I-1
sba(iaction
Action
p725
(dp726
g8
I-1
sg9
I-1
sba(iaction
Action
p727
(dp728
g8
I-1
sg9
I-1
sba(iaction
Action
p729
(dp730
g8
I1
sg9
I-1
sbaa(lp731
(iaction
Action
p732
(dp733
g8
I-1
sg9
I-1
sba(iaction
Action
p734
(dp735
g8
I-1
sg9
I-1
sba(iaction
Action
p736
(dp737
g8
I0
sg9
I0
sba(iaction
Action
p738
(dp739
g8
I0
sg9
I0
sba(iaction
Action
p740
(dp741
g8
I0
sg9
I0
sba(iaction
Action
p742
(dp743
g8
I-1
sg9
I-1
sbaa(lp744
(iaction
Action
p745
(dp746
g8
I-1
sg9
I-1
sba(iaction
Action
p747
(dp748
g8
I-1
sg9
I-1
sba(iaction
Action
p749
(dp750
g8
I-1
sg9
I-1
sba(iaction
Action
p751
(dp752
g8
I-1
sg9
I-1
sba(iaction
Action
p753
(dp754
g8
I-1
sg9
I-1
sba(iaction
Action
p755
(dp756
g8
I-1
sg9
I-1
sbaa(lp757
(iaction
Action
p758
(dp759
g8
I-1
sg9
I-1
sba(iaction
Action
p760
(dp761
g8
I-1
sg9
I-1
sba(iaction
Action
p762
(dp763
g8
I0
sg9
I0
sba(iaction
Action
p764
(dp765
g8
I0
sg9
I0
sba(iaction
Action
p766
(dp767
g8
I0
sg9
I0
sba(iaction
Action
p768
(dp769
g8
I-1
sg9
I-1
sbaa(lp770
(iaction
Action
p771
(dp772
g8
I-1
sg9
I-1
sba(iaction
Action
p773
(dp774
g8
I1
sg9
I-1
sba(iaction
Action
p775
(dp776
g8
I1
sg9
I-1
sba(iaction
Action
p777
(dp778
g8
I1
sg9
I-1
sba(iaction
Action
p779
(dp780
g8
I1
sg9
I-1
sba(iaction
Action
p781
(dp782
g8
I-1
sg9
I-1
sbaa(lp783
(iaction
Action
p784
(dp785
g8
I1
sg9
I-1
sba(iaction
Action
p786
(dp787
g8
I1
sg9
I-1
sba(iaction
Action
p788
(dp789
g8
I1
sg9
I-1
sba(iaction
Action
p790
(dp791
g8
I1
sg9
I-1
sba(iaction
Action
p792
(dp793
g8
I1
sg9
I-1
sba(iaction
Action
p794
(dp795
g8
I1
sg9
I-1
sbaaa(lp796
(lp797
(iaction
Action
p798
(dp799
g8
I-1
sg9
I1
sba(iaction
Action
p800
(dp801
g8
I-1
sg9
I-1
sba(iaction
Action
p802
(dp803
g8
I-1
sg9
I1
sba(iaction
Action
p804
(dp805
g8
I-1
sg9
I1
sba(iaction
Action
p806
(dp807
g8
I-1
sg9
I1
sba(iaction
Action
p808
(dp809
g8
I-1
sg9
I1
sbaa(lp810
(iaction
Action
p811
(dp812
g8
I-1
sg9
I1
sba(iaction
Action
p813
(dp814
g8
I-1
sg9
I0
sba(iaction
Action
p815
(dp816
g8
I0
sg9
I0
sba(iaction
Action
p817
(dp818
g8
I0
sg9
I0
sba(iaction
Action
p819
(dp820
g8
I0
sg9
I0
sba(iaction
Action
p821
(dp822
g8
I-1
sg9
I1
sbaa(lp823
(iaction
Action
p824
(dp825
g8
I-1
sg9
I1
sba(iaction
Action
p826
(dp827
g8
I-1
sg9
I1
sba(iaction
Action
p828
(dp829
g8
I-1
sg9
I1
sba(iaction
Action
p830
(dp831
g8
I-1
sg9
I1
sba(iaction
Action
p832
(dp833
g8
I-1
sg9
I-1
sba(iaction
Action
p834
(dp835
g8
I-1
sg9
I1
sbaa(lp836
(iaction
Action
p837
(dp838
g8
I-1
sg9
I1
sba(iaction
Action
p839
(dp840
g8
I-1
sg9
I0
sba(iaction
Action
p841
(dp842
g8
I0
sg9
I0
sba(iaction
Action
p843
(dp844
g8
I0
sg9
I0
sba(iaction
Action
p845
(dp846
g8
I0
sg9
I0
sba(iaction
Action
p847
(dp848
g8
I-1
sg9
I1
sbaa(lp849
(iaction
Action
p850
(dp851
g8
I1
sg9
I1
sba(iaction
Action
p852
(dp853
g8
I1
sg9
I1
sba(iaction
Action
p854
(dp855
g8
I1
sg9
I1
sba(iaction
Action
p856
(dp857
g8
I1
sg9
I1
sba(iaction
Action
p858
(dp859
g8
I1
sg9
I-1
sba(iaction
Action
p860
(dp861
g8
I1
sg9
I1
sbaa(lp862
(iaction
Action
p863
(dp864
g8
I1
sg9
I1
sba(iaction
Action
p865
(dp866
g8
I1
sg9
I0
sba(iaction
Action
p867
(dp868
g8
I1
sg9
I0
sba(iaction
Action
p869
(dp870
g8
I1
sg9
I0
sba(iaction
Action
p871
(dp872
g8
I1
sg9
I-1
sba(iaction
Action
p873
(dp874
g8
I1
sg9
I1
sbaaa(lp875
(lp876
(iaction
Action
p877
(dp878
g8
I1
sg9
I-1
sba(iaction
Action
p879
(dp880
g8
I1
sg9
I-1
sba(iaction
Action
p881
(dp882
g8
I-1
sg9
I-1
sba(iaction
Action
p883
(dp884
g8
I-1
sg9
I-1
sba(iaction
Action
p885
(dp886
g8
I-1
sg9
I-1
sba(iaction
Action
p887
(dp888
g8
I-1
sg9
I-1
sbaa(lp889
(iaction
Action
p890
(dp891
g8
I1
sg9
I-1
sba(iaction
Action
p892
(dp893
g8
I1
sg9
I0
sba(iaction
Action
p894
(dp895
g8
I-1
sg9
I-1
sba(iaction
Action
p896
(dp897
g8
I-1
sg9
I0
sba(iaction
Action
p898
(dp899
g8
I-1
sg9
I0
sba(iaction
Action
p900
(dp901
g8
I-1
sg9
I0
sbaa(lp902
(iaction
Action
p903
(dp904
g8
I1
sg9
I-1
sba(iaction
Action
p905
(dp906
g8
I0
sg9
I0
sba(iaction
Action
p907
(dp908
g8
I-1
sg9
I-1
sba(iaction
Action
p909
(dp910
g8
I1
sg9
I-1
sba(iaction
Action
p911
(dp912
g8
I-1
sg9
I-1
sba(iaction
Action
p913
(dp914
g8
I-1
sg9
I-1
sbaa(lp915
(iaction
Action
p916
(dp917
g8
I1
sg9
I0
sba(iaction
Action
p918
(dp919
g8
I1
sg9
I0
sba(iaction
Action
p920
(dp921
g8
I1
sg9
I0
sba(iaction
Action
p922
(dp923
g8
I1
sg9
I-1
sba(iaction
Action
p924
(dp925
g8
I0
sg9
I0
sba(iaction
Action
p926
(dp927
g8
I-1
sg9
I-1
sbaa(lp928
(iaction
Action
p929
(dp930
g8
I1
sg9
I-1
sba(iaction
Action
p931
(dp932
g8
I0
sg9
I0
sba(iaction
Action
p933
(dp934
g8
I-1
sg9
I-1
sba(iaction
Action
p935
(dp936
g8
I1
sg9
I-1
sba(iaction
Action
p937
(dp938
g8
I-1
sg9
I-1
sba(iaction
Action
p939
(dp940
g8
I-1
sg9
I-1
sbaa(lp941
(iaction
Action
p942
(dp943
g8
I1
sg9
I-1
sba(iaction
Action
p944
(dp945
g8
I1
sg9
I-1
sba(iaction
Action
p946
(dp947
g8
I-1
sg9
I-1
sba(iaction
Action
p948
(dp949
g8
I1
sg9
I-1
sba(iaction
Action
p950
(dp951
g8
I-1
sg9
I-1
sba(iaction
Action
p952
(dp953
g8
I-1
sg9
I-1
sbaaasb.